; Function Attrs: mustprogress uwtable
define void @_ZN3nix11getCgroupFSB5cxx11Ev(ptr dead_on_unwind noalias writable sret(%"class.std::optional") align 8 %0) local_unnamed_addr #2 personality ptr @__gxx_personality_v0 {
  %2 = load atomic i8, ptr @_ZGVZN3nix11getCgroupFSB5cxx11EvE3resB5cxx11 acquire, align 8
  %3 = icmp eq i8 %2, 0
  br i1 %3, label %4, label %9, !prof !4

4:                                                ; preds = %1
  %5 = tail call i32 @__cxa_guard_acquire(ptr nonnull @_ZGVZN3nix11getCgroupFSB5cxx11EvE3resB5cxx11) #28
  %.not = icmp eq i32 %5, 0
  br i1 %.not, label %9, label %6

6:                                                ; preds = %4
  invoke fastcc void @"_ZZN3nix11getCgroupFSB5cxx11EvENK3$_0clB5cxx11Ev"()
          to label %7 unwind label %13

7:                                                ; preds = %6
  %8 = tail call i32 @__cxa_atexit(ptr nonnull @_ZNSt8optionalINSt7__cxx1112basic_stringIcSt11char_traitsIcESaIcEEEED2Ev, ptr nonnull @_ZZN3nix11getCgroupFSB5cxx11EvE3resB5cxx11, ptr nonnull @__dso_handle) #28
  tail call void @__cxa_guard_release(ptr nonnull @_ZGVZN3nix11getCgroupFSB5cxx11EvE3resB5cxx11) #28
  br label %9

9:                                                ; preds = %7, %4, %1
  %10 = getelementptr inbounds i8, ptr %0, i64 32
  store i8 0, ptr %10, align 8
  %11 = load i8, ptr getelementptr inbounds (%"class.std::optional", ptr @_ZZN3nix11getCgroupFSB5cxx11EvE3resB5cxx11, i64 0, i32 0, i32 0, i32 0, i32 0, i32 1), align 8
  %12 = and i8 %11, 1
  %.not.i.i.i.i.i = icmp eq i8 %12, 0
  br i1 %.not.i.i.i.i.i, label %_ZNSt8optionalINSt7__cxx1112basic_stringIcSt11char_traitsIcESaIcEEEEC2ERKS6_.exit, label %_ZNSt22_Optional_payload_baseINSt7__cxx1112basic_stringIcSt11char_traitsIcESaIcEEEE12_M_constructIJRKS5_EEEvDpOT_.exit.i.i.i.i.i

_ZNSt22_Optional_payload_baseINSt7__cxx1112basic_stringIcSt11char_traitsIcESaIcEEEE12_M_constructIJRKS5_EEEvDpOT_.exit.i.i.i.i.i: ; preds = %9
  tail call void @_ZNSt7__cxx1112basic_stringIcSt11char_traitsIcESaIcEEC2ERKS4_(ptr noundef nonnull align 8 dereferenceable(32) %0, ptr noundef nonnull align 8 dereferenceable(32) @_ZZN3nix11getCgroupFSB5cxx11EvE3resB5cxx11)
  store i8 1, ptr %10, align 8
  br label %_ZNSt8optionalINSt7__cxx1112basic_stringIcSt11char_traitsIcESaIcEEEEC2ERKS6_.exit

_ZNSt8optionalINSt7__cxx1112basic_stringIcSt11char_traitsIcESaIcEEEEC2ERKS6_.exit: ; preds = %9, %_ZNSt22_Optional_payload_baseINSt7__cxx1112basic_stringIcSt11char_traitsIcESaIcEEEE12_M_constructIJRKS5_EEEvDpOT_.exit.i.i.i.i.i
  ret void

13:                                               ; preds = %6
  %14 = landingpad { ptr, i32 }
          cleanup
  tail call void @__cxa_guard_abort(ptr nonnull @_ZGVZN3nix11getCgroupFSB5cxx11EvE3resB5cxx11) #28
  resume { ptr, i32 } %14
}